; Function Attrs: nounwind uwtable
define noundef ptr @Saig_ManBmcDfsNodes(ptr noundef %0, ptr noundef readonly captures(none) %1) local_unnamed_addr #0 {
  %3 = tail call noalias dereferenceable_or_null(16) ptr @malloc(i64 noundef 16) #27
  %4 = getelementptr inbounds nuw i8, ptr %3, i64 4
  store i32 0, ptr %4, align 4, !tbaa !32
  store i32 100, ptr %3, align 8, !tbaa !42
  %5 = tail call noalias dereferenceable_or_null(800) ptr @malloc(i64 noundef 800) #27
  %6 = getelementptr inbounds nuw i8, ptr %3, i64 8
  store ptr %5, ptr %6, align 8, !tbaa !23
  %7 = getelementptr i8, ptr %1, i64 4
  %.val910 = load i32, ptr %7, align 4, !tbaa !32
  %8 = icmp sgt i32 %.val910, 0
  br i1 %8, label %.lr.ph, label %.critedge

.lr.ph:                                           ; preds = %2
  %9 = getelementptr i8, ptr %1, i64 8
  br label %10

10:                                               ; preds = %.lr.ph, %10
  %indvars.iv = phi i64 [ 0, %.lr.ph ], [ %indvars.iv.next, %10 ]
  %.val = load ptr, ptr %9, align 8, !tbaa !23
  %11 = getelementptr inbounds nuw ptr, ptr %.val, i64 %indvars.iv
  %12 = load ptr, ptr %11, align 8, !tbaa !25
  %13 = getelementptr i8, ptr %12, i64 8
  %.val8 = load ptr, ptr %13, align 8, !tbaa !26
  %14 = ptrtoint ptr %.val8 to i64
  %15 = and i64 %14, -2
  %16 = inttoptr i64 %15 to ptr
  tail call void @Saig_ManBmcDfs_rec(ptr noundef %0, ptr noundef %16, ptr noundef nonnull %3)
  %indvars.iv.next = add nuw nsw i64 %indvars.iv, 1
  %.val9 = load i32, ptr %7, align 4, !tbaa !32
  %17 = sext i32 %.val9 to i64
  %18 = icmp slt i64 %indvars.iv.next, %17
  br i1 %18, label %10, label %.critedge, !llvm.loop !57

.critedge:                                        ; preds = %10, %2
  ret ptr %3
}